target datalayout = "e-m:e-p270:32:32-p271:32:32-p272:64:64-i64:64-i128:128-f80:128-n8:16:32:64-S128"
target triple = "x86_64-unknown-linux-gnu"

%struct.b3DbvtProxy = type <{ %struct.b3BroadphaseProxy, ptr, [2 x ptr], i32, [4 x i8] }>
%struct.b3BroadphaseProxy = type { ptr, i32, i32, i32, [12 x i8], %class.b3Vector3, %class.b3Vector3 }
%class.b3Vector3 = type { %union.anon }
%union.anon = type { [4 x float] }
%struct.b3DynamicBvhBroadphase = type <{ ptr, [2 x %struct.b3DynamicBvh], [3 x ptr], %class.b3AlignedObjectArray.4, ptr, float, i32, i32, i32, i32, i32, i32, i32, i32, float, i32, i32, i8, i8, i8, [5 x i8] }>
%struct.b3DynamicBvh = type { ptr, ptr, i32, i32, i32, [4 x i8], %class.b3AlignedObjectArray, %class.b3AlignedObjectArray.0 }
%class.b3AlignedObjectArray = type <{ %class.b3AlignedAllocator, [3 x i8], i32, i32, [4 x i8], ptr, i8, [7 x i8] }>
%class.b3AlignedAllocator = type { i8 }
%class.b3AlignedObjectArray.0 = type <{ %class.b3AlignedAllocator.1, [3 x i8], i32, i32, [4 x i8], ptr, i8, [7 x i8] }>
%class.b3AlignedAllocator.1 = type { i8 }
%class.b3AlignedObjectArray.4 = type <{ %class.b3AlignedAllocator.5, [3 x i8], i32, i32, [4 x i8], ptr, i8, [7 x i8] }>
%class.b3AlignedAllocator.5 = type { i8 }

; Function Attrs: mustprogress nounwind uwtable
define linkonce_odr dso_local noundef nonnull align 16 dereferenceable(92) ptr @_ZNK20b3AlignedObjectArrayI11b3DbvtProxyEixEi(ptr noundef nonnull align 8 dereferenceable(25) %this, i32 noundef %n) #3 comdat align 2 {
entry:
  %this.addr = alloca ptr, align 8
  %n.addr = alloca i32, align 4
  store ptr %this, ptr %this.addr, align 8
  store i32 %n, ptr %n.addr, align 4
  %this1 = load ptr, ptr %this.addr, align 8
  %m_data = getelementptr inbounds %class.b3AlignedObjectArray.4, ptr %this1, i32 0, i32 5
  %0 = load ptr, ptr %m_data, align 8
  %1 = load i32, ptr %n.addr, align 4
  %idxprom = sext i32 %1 to i64
  %arrayidx = getelementptr inbounds %struct.b3DbvtProxy, ptr %0, i64 %idxprom
  ret ptr %arrayidx
}

; Function Attrs: mustprogress uwtable
define dso_local void @_ZNK22b3DynamicBvhBroadphase7getAabbEiR9b3Vector3S1_(ptr noundef nonnull align 8 dereferenceable(315) %this, i32 noundef %objectId, ptr noundef nonnull align 16 dereferenceable(16) %aabbMin, ptr noundef nonnull align 16 dereferenceable(16) %aabbMax) unnamed_addr #0 align 2 {
entry:
  %this.addr = alloca ptr, align 8
  %objectId.addr = alloca i32, align 4
  %aabbMin.addr = alloca ptr, align 8
  %aabbMax.addr = alloca ptr, align 8
  %proxy = alloca ptr, align 8
  store ptr %this, ptr %this.addr, align 8
  store i32 %objectId, ptr %objectId.addr, align 4
  store ptr %aabbMin, ptr %aabbMin.addr, align 8
  store ptr %aabbMax, ptr %aabbMax.addr, align 8
  %this1 = load ptr, ptr %this.addr, align 8
  %m_proxies = getelementptr inbounds %struct.b3DynamicBvhBroadphase, ptr %this1, i32 0, i32 3
  %0 = load i32, ptr %objectId.addr, align 4
  %call = call noundef nonnull align 16 dereferenceable(92) ptr @_ZNK20b3AlignedObjectArrayI11b3DbvtProxyEixEi(ptr noundef nonnull align 8 dereferenceable(25) %m_proxies, i32 noundef %0)
  store ptr %call, ptr %proxy, align 8
  %1 = load ptr, ptr %proxy, align 8
  %m_aabbMin = getelementptr inbounds %struct.b3BroadphaseProxy, ptr %1, i32 0, i32 5
  %2 = load ptr, ptr %aabbMin.addr, align 8
  call void @llvm.memcpy.p0.p0.i64(ptr align 16 %2, ptr align 16 %m_aabbMin, i64 16, i1 false)
  %3 = load ptr, ptr %proxy, align 8
  %m_aabbMax = getelementptr inbounds %struct.b3BroadphaseProxy, ptr %3, i32 0, i32 6
  %4 = load ptr, ptr %aabbMax.addr, align 8
  call void @llvm.memcpy.p0.p0.i64(ptr align 16 %4, ptr align 16 %m_aabbMax, i64 16, i1 false)
  ret void
}