; Function Attrs: mustprogress nofree norecurse nosync nounwind willreturn memory(readwrite, inaccessiblemem: none) uwtable
define dso_local void @_ZNK22b3DynamicBvhBroadphase7getAabbEiR9b3Vector3S1_(ptr nocapture noundef nonnull readonly align 8 dereferenceable(315) %this, i32 noundef %objectId, ptr nocapture noundef nonnull writeonly align 16 dereferenceable(16) %aabbMin, ptr nocapture noundef nonnull writeonly align 16 dereferenceable(16) %aabbMax) unnamed_addr #6 align 2 {
entry:
  %m_data.i = getelementptr inbounds i8, ptr %this, i64 240
  %0 = load ptr, ptr %m_data.i, align 8
  %idxprom.i = sext i32 %objectId to i64
  %arrayidx.i = getelementptr inbounds %struct.b3DbvtProxy, ptr %0, i64 %idxprom.i
  %m_aabbMin = getelementptr inbounds i8, ptr %arrayidx.i, i64 32
  tail call void @llvm.memcpy.p0.p0.i64(ptr noundef nonnull align 16 dereferenceable(16) %aabbMin, ptr noundef nonnull align 16 dereferenceable(16) %m_aabbMin, i64 16, i1 false)
  %m_aabbMax = getelementptr inbounds i8, ptr %arrayidx.i, i64 48
  tail call void @llvm.memcpy.p0.p0.i64(ptr noundef nonnull align 16 dereferenceable(16) %aabbMax, ptr noundef nonnull align 16 dereferenceable(16) %m_aabbMax, i64 16, i1 false)
  ret void
}